; ModuleID = '45/388.c'
source_filename = "45/388.c"
target datalayout = "e-m:e-p270:32:32-p271:32:32-p272:64:64-i64:64-f80:128-n8:16:32:64-S128"
target triple = "x86_64-pc-linux-gnu"

@.str = private unnamed_addr constant [5 x i8] c"%s%s\00", align 1
@.str.1 = private unnamed_addr constant [3 x i8] c"%d\00", align 1

; Function Attrs: noinline nounwind uwtable
define dso_local void @main() #0 {
  %1 = alloca [2 x [30 x i8]], align 16
  %2 = alloca i8*, align 8
  %3 = alloca i8*, align 8
  %4 = alloca i32, align 4
  %5 = alloca i32, align 4
  %6 = bitcast [2 x [30 x i8]]* %1 to i8*
  call void @llvm.memset.p0i8.i64(i8* align 16 %6, i8 0, i64 60, i1 false)
  %7 = getelementptr inbounds [2 x [30 x i8]], [2 x [30 x i8]]* %1, i64 0, i64 0
  %8 = getelementptr inbounds [30 x i8], [30 x i8]* %7, i64 0, i64 0
  store i8* %8, i8** %2, align 8
  %9 = getelementptr inbounds [2 x [30 x i8]], [2 x [30 x i8]]* %1, i64 0, i64 1
  %10 = getelementptr inbounds [30 x i8], [30 x i8]* %9, i64 0, i64 0
  store i8* %10, i8** %3, align 8
  %11 = load i8*, i8** %3, align 8
  %12 = load i8*, i8** %2, align 8
  %13 = call i32 (i8*, ...) @__isoc99_scanf(i8* getelementptr inbounds ([5 x i8], [5 x i8]* @.str, i64 0, i64 0), i8* %11, i8* %12)
  %14 = load i8*, i8** %3, align 8
  %15 = call i64 @strlen(i8* %14) #4
  %16 = trunc i64 %15 to i32
  store i32 %16, i32* %4, align 4
  store i32 0, i32* %5, align 4
  br label %17

17:                                               ; preds = %78, %0
  %18 = load i8*, i8** %2, align 8
  %19 = load i8, i8* %18, align 1
  %20 = sext i8 %19 to i32
  %21 = icmp ne i32 %20, 0
  br i1 %21, label %22, label %81

22:                                               ; preds = %17
  br label %23

23:                                               ; preds = %38, %22
  %24 = load i8*, i8** %2, align 8
  %25 = load i8, i8* %24, align 1
  %26 = sext i8 %25 to i32
  %27 = load i8*, i8** %3, align 8
  %28 = load i8, i8* %27, align 1
  %29 = sext i8 %28 to i32
  %30 = icmp ne i32 %26, %29
  br i1 %30, label %31, label %36

31:                                               ; preds = %23
  %32 = load i8*, i8** %2, align 8
  %33 = load i8, i8* %32, align 1
  %34 = sext i8 %33 to i32
  %35 = icmp ne i32 %34, 0
  br label %36

36:                                               ; preds = %31, %23
  %37 = phi i1 [ false, %23 ], [ %35, %31 ]
  br i1 %37, label %38, label %41

38:                                               ; preds = %36
  %39 = load i8*, i8** %2, align 8
  %40 = getelementptr inbounds i8, i8* %39, i64 1
  store i8* %40, i8** %2, align 8
  br label %23

41:                                               ; preds = %36
  store i32 1, i32* %5, align 4
  br label %42

42:                                               ; preds = %61, %41
  %43 = load i8*, i8** %3, align 8
  %44 = getelementptr inbounds i8, i8* %43, i64 1
  %45 = load i8, i8* %44, align 1
  %46 = sext i8 %45 to i32
  %47 = icmp ne i32 %46, 0
  br i1 %47, label %48, label %62

48:                                               ; preds = %42
  %49 = load i8*, i8** %2, align 8
  %50 = getelementptr inbounds i8, i8* %49, i64 1
  store i8* %50, i8** %2, align 8
  %51 = load i8*, i8** %3, align 8
  %52 = getelementptr inbounds i8, i8* %51, i64 1
  store i8* %52, i8** %3, align 8
  %53 = load i8*, i8** %2, align 8
  %54 = load i8, i8* %53, align 1
  %55 = sext i8 %54 to i32
  %56 = load i8*, i8** %3, align 8
  %57 = load i8, i8* %56, align 1
  %58 = sext i8 %57 to i32
  %59 = icmp ne i32 %55, %58
  br i1 %59, label %60, label %61

60:                                               ; preds = %48
  store i32 0, i32* %5, align 4
  br label %62

61:                                               ; preds = %48
  br label %42

62:                                               ; preds = %60, %42
  %63 = load i32, i32* %5, align 4
  %64 = icmp eq i32 %63, 1
  br i1 %64, label %65, label %77

65:                                               ; preds = %62
  %66 = load i8*, i8** %2, align 8
  %67 = getelementptr inbounds [2 x [30 x i8]], [2 x [30 x i8]]* %1, i64 0, i64 0
  %68 = getelementptr inbounds [30 x i8], [30 x i8]* %67, i64 0, i64 0
  %69 = ptrtoint i8* %66 to i64
  %70 = ptrtoint i8* %68 to i64
  %71 = sub i64 %69, %70
  %72 = load i32, i32* %4, align 4
  %73 = sext i32 %72 to i64
  %74 = sub nsw i64 %71, %73
  %75 = add nsw i64 %74, 1
  %76 = call i32 (i8*, ...) @printf(i8* getelementptr inbounds ([3 x i8], [3 x i8]* @.str.1, i64 0, i64 0), i64 %75)
  br label %81

77:                                               ; preds = %62
  br label %78

78:                                               ; preds = %77
  %79 = load i8*, i8** %2, align 8
  %80 = getelementptr inbounds i8, i8* %79, i32 1
  store i8* %80, i8** %2, align 8
  br label %17

81:                                               ; preds = %65, %17
  ret void
}

; Function Attrs: argmemonly nounwind willreturn
declare void @llvm.memset.p0i8.i64(i8* nocapture writeonly, i8, i64, i1 immarg) #1

declare dso_local i32 @__isoc99_scanf(i8*, ...) #2

; Function Attrs: nounwind readonly
declare dso_local i64 @strlen(i8*) #3

declare dso_local i32 @printf(i8*, ...) #2


!llvm.module.flags = !{!0}
!llvm.ident = !{!1}

!0 = !{i32 1, !"wchar_size", i32 4}
!1 = !{!"clang version 10.0.0-4ubuntu1 "}
